target datalayout = "e-m:e-p270:32:32-p271:32:32-p272:64:64-i64:64-i128:128-f80:128-n8:16:32:64-S128"
target triple = "x86_64-pc-linux-gnu"

%"class.std::__cxx11::basic_string" = type { %"struct.std::__cxx11::basic_string<char>::_Alloc_hider", i64, %union.anon }
%"struct.std::__cxx11::basic_string<char>::_Alloc_hider" = type { ptr }
%union.anon = type { i64, [8 x i8] }
%"struct.Yosys::Pass" = type { ptr, %"class.std::__cxx11::basic_string", %"class.std::__cxx11::basic_string", i32, i64, i8, ptr }
%"struct.Yosys::Pass::pre_post_exec_state_t" = type { ptr, i64 }
%struct.rusage = type { %struct.timeval, %struct.timeval, %union.anon.158, %union.anon.159, %union.anon.160, %union.anon.161, %union.anon.162, %union.anon.163, %union.anon.164, %union.anon.165, %union.anon.166, %union.anon.167, %union.anon.168, %union.anon.169, %union.anon.170, %union.anon.171 }
%struct.timeval = type { i64, i64 }
%union.anon.158 = type { i64 }
%union.anon.159 = type { i64 }
%union.anon.160 = type { i64 }
%union.anon.161 = type { i64 }
%union.anon.162 = type { i64 }
%union.anon.163 = type { i64 }
%union.anon.164 = type { i64 }
%union.anon.165 = type { i64 }
%union.anon.166 = type { i64 }
%union.anon.167 = type { i64 }
%union.anon.168 = type { i64 }
%union.anon.169 = type { i64 }
%union.anon.170 = type { i64 }
%union.anon.171 = type { i64 }
%"class.std::initializer_list" = type { ptr, i64 }

@_ZN5Yosys12current_passE = global ptr null, align 8
@.str.54 = private unnamed_addr constant [19 x i8] c"getrusage failed!\0A\00", align 1
@_ZN5Yosys20log_debug_suppressedE = external global i32, align 4
@_ZN5Yosys14log_make_debugE = external global i32, align 4
@.str.55 = private unnamed_addr constant [33 x i8] c"<suppressed ~%d debug messages>\0A\00", align 1

; Function Attrs: mustprogress nounwind uwtable
define linkonce_odr noundef i64 @_ZNKSt16initializer_listI12__rusage_whoE4sizeEv(ptr noundef nonnull align 8 dereferenceable(16) %0) #4 comdat align 2 {
  %2 = alloca ptr, align 8
  store ptr %0, ptr %2, align 8, !tbaa !72
  %3 = load ptr, ptr %2, align 8
  %4 = getelementptr inbounds nuw %"class.std::initializer_list", ptr %3, i32 0, i32 1
  %5 = load i64, ptr %4, align 8, !tbaa !71
  ret i64 %5
}

; Function Attrs: mustprogress nounwind uwtable
define linkonce_odr noundef ptr @_ZNKSt16initializer_listI12__rusage_whoE3endEv(ptr noundef nonnull align 8 dereferenceable(16) %0) #4 comdat align 2 {
  %2 = alloca ptr, align 8
  store ptr %0, ptr %2, align 8, !tbaa !72
  %3 = load ptr, ptr %2, align 8
  %4 = call noundef ptr @_ZNKSt16initializer_listI12__rusage_whoE5beginEv(ptr noundef nonnull align 8 dereferenceable(16) %3) #3
  %5 = call noundef i64 @_ZNKSt16initializer_listI12__rusage_whoE4sizeEv(ptr noundef nonnull align 8 dereferenceable(16) %3) #3
  %6 = getelementptr inbounds nuw i32, ptr %4, i64 %5
  ret ptr %6
}

; Function Attrs: mustprogress nounwind uwtable
define linkonce_odr noundef ptr @_ZNKSt16initializer_listI12__rusage_whoE5beginEv(ptr noundef nonnull align 8 dereferenceable(16) %0) #4 comdat align 2 {
  %2 = alloca ptr, align 8
  store ptr %0, ptr %2, align 8, !tbaa !72
  %3 = load ptr, ptr %2, align 8
  %4 = getelementptr inbounds nuw %"class.std::initializer_list", ptr %3, i32 0, i32 0
  %5 = load ptr, ptr %4, align 8, !tbaa !69
  ret ptr %5
}

; Function Attrs: mustprogress uwtable
define linkonce_odr noundef i64 @_ZN5Yosys16PerformanceTimer5queryEv() #5 comdat align 2 {
  %1 = alloca %struct.rusage, align 8
  %2 = alloca i64, align 8
  %3 = alloca ptr, align 8
  %4 = alloca %"class.std::initializer_list", align 8
  %5 = alloca [2 x i32], align 4
  %6 = alloca ptr, align 8
  %7 = alloca ptr, align 8
  %8 = alloca i32, align 4
  call void @llvm.lifetime.start.p0(i64 144, ptr %1) #3
  call void @llvm.lifetime.start.p0(i64 8, ptr %2) #3
  store i64 0, ptr %2, align 8, !tbaa !66
  call void @llvm.lifetime.start.p0(i64 8, ptr %3) #3
  call void @llvm.lifetime.start.p0(i64 16, ptr %4) #3
  call void @llvm.lifetime.start.p0(i64 8, ptr %5) #3
  store i32 0, ptr %5, align 4, !tbaa !67
  %9 = getelementptr inbounds i32, ptr %5, i64 1
  store i32 -1, ptr %9, align 4, !tbaa !67
  %10 = getelementptr inbounds nuw %"class.std::initializer_list", ptr %4, i32 0, i32 0
  store ptr %5, ptr %10, align 8, !tbaa !69
  %11 = getelementptr inbounds nuw %"class.std::initializer_list", ptr %4, i32 0, i32 1
  store i64 2, ptr %11, align 8, !tbaa !71
  store ptr %4, ptr %3, align 8, !tbaa !72
  call void @llvm.lifetime.start.p0(i64 8, ptr %6) #3
  %12 = load ptr, ptr %3, align 8, !tbaa !72
  %13 = call noundef ptr @_ZNKSt16initializer_listI12__rusage_whoE5beginEv(ptr noundef nonnull align 8 dereferenceable(16) %12) #3
  store ptr %13, ptr %6, align 8, !tbaa !74
  call void @llvm.lifetime.start.p0(i64 8, ptr %7) #3
  %14 = load ptr, ptr %3, align 8, !tbaa !72
  %15 = call noundef ptr @_ZNKSt16initializer_listI12__rusage_whoE3endEv(ptr noundef nonnull align 8 dereferenceable(16) %14) #3
  store ptr %15, ptr %7, align 8, !tbaa !74
  br label %16

16:                                               ; preds = %51, %0
  %17 = load ptr, ptr %6, align 8, !tbaa !74
  %18 = load ptr, ptr %7, align 8, !tbaa !74
  %19 = icmp ne ptr %17, %18
  br i1 %19, label %21, label %20

20:                                               ; preds = %16
  call void @llvm.lifetime.end.p0(i64 8, ptr %7) #3
  call void @llvm.lifetime.end.p0(i64 8, ptr %6) #3
  call void @llvm.lifetime.end.p0(i64 8, ptr %5) #3
  call void @llvm.lifetime.end.p0(i64 16, ptr %4) #3
  call void @llvm.lifetime.end.p0(i64 8, ptr %3) #3
  br label %54

21:                                               ; preds = %16
  call void @llvm.lifetime.start.p0(i64 4, ptr %8) #3
  %22 = load ptr, ptr %6, align 8, !tbaa !74
  %23 = load i32, ptr %22, align 4, !tbaa !67
  store i32 %23, ptr %8, align 4, !tbaa !75
  %24 = load i32, ptr %8, align 4, !tbaa !75
  %25 = call i32 @getrusage(i32 noundef %24, ptr noundef %1) #3
  %26 = icmp eq i32 %25, -1
  br i1 %26, label %27, label %28

27:                                               ; preds = %21
  call void (ptr, ...) @_ZN5Yosys13log_cmd_errorEPKcz(ptr noundef @.str.54) #28
  unreachable

28:                                               ; preds = %21
  %29 = getelementptr inbounds nuw %struct.rusage, ptr %1, i32 0, i32 0
  %30 = getelementptr inbounds nuw %struct.timeval, ptr %29, i32 0, i32 0
  %31 = load i64, ptr %30, align 8, !tbaa !76
  %32 = mul i64 1000000000, %31
  %33 = getelementptr inbounds nuw %struct.rusage, ptr %1, i32 0, i32 0
  %34 = getelementptr inbounds nuw %struct.timeval, ptr %33, i32 0, i32 1
  %35 = load i64, ptr %34, align 8, !tbaa !79
  %36 = mul i64 %35, 1000
  %37 = add i64 %32, %36
  %38 = load i64, ptr %2, align 8, !tbaa !66
  %39 = add i64 %38, %37
  store i64 %39, ptr %2, align 8, !tbaa !66
  %40 = getelementptr inbounds nuw %struct.rusage, ptr %1, i32 0, i32 1
  %41 = getelementptr inbounds nuw %struct.timeval, ptr %40, i32 0, i32 0
  %42 = load i64, ptr %41, align 8, !tbaa !80
  %43 = mul i64 1000000000, %42
  %44 = getelementptr inbounds nuw %struct.rusage, ptr %1, i32 0, i32 1
  %45 = getelementptr inbounds nuw %struct.timeval, ptr %44, i32 0, i32 1
  %46 = load i64, ptr %45, align 8, !tbaa !81
  %47 = mul i64 %46, 1000
  %48 = add i64 %43, %47
  %49 = load i64, ptr %2, align 8, !tbaa !66
  %50 = add i64 %49, %48
  store i64 %50, ptr %2, align 8, !tbaa !66
  call void @llvm.lifetime.end.p0(i64 4, ptr %8) #3
  br label %51

51:                                               ; preds = %28
  %52 = load ptr, ptr %6, align 8, !tbaa !74
  %53 = getelementptr inbounds nuw i32, ptr %52, i32 1
  store ptr %53, ptr %6, align 8, !tbaa !74
  br label %16

54:                                               ; preds = %20
  %55 = load i64, ptr %2, align 8, !tbaa !66
  call void @llvm.lifetime.end.p0(i64 8, ptr %2) #3
  call void @llvm.lifetime.end.p0(i64 144, ptr %1) #3
  ret i64 %55
}

; Function Attrs: inlinehint mustprogress uwtable
define internal void @_ZN5YosysL14log_suppressedEv() #10 {
  %1 = load i32, ptr @_ZN5Yosys20log_debug_suppressedE, align 4, !tbaa !75
  %2 = icmp ne i32 %1, 0
  br i1 %2, label %3, label %8

3:                                                ; preds = %0
  %4 = load i32, ptr @_ZN5Yosys14log_make_debugE, align 4, !tbaa !75
  %5 = icmp ne i32 %4, 0
  br i1 %5, label %8, label %6

6:                                                ; preds = %3
  %7 = load i32, ptr @_ZN5Yosys20log_debug_suppressedE, align 4, !tbaa !75
  call void (ptr, ...) @_ZN5Yosys3logEPKcz(ptr noundef @.str.55, i32 noundef %7)
  store i32 0, ptr @_ZN5Yosys20log_debug_suppressedE, align 4, !tbaa !75
  br label %8

8:                                                ; preds = %6, %3, %0
  ret void
}

; Function Attrs: inlinehint mustprogress nounwind uwtable
define linkonce_odr void @_ZN5Yosys5RTLIL8IdString10checkpointEv() #8 comdat align 2 {
  ret void
}

; Function Attrs: mustprogress uwtable
define void @_ZN5Yosys4Pass12post_executeENS0_21pre_post_exec_state_tE(ptr noundef nonnull align 8 dereferenceable(104) %0, ptr %1, i64 %2) #5 align 2 {
  %4 = alloca %"struct.Yosys::Pass::pre_post_exec_state_t", align 8
  %5 = alloca ptr, align 8
  %6 = alloca i64, align 8
  %7 = getelementptr inbounds nuw { ptr, i64 }, ptr %4, i32 0, i32 0
  store ptr %1, ptr %7, align 8
  %8 = getelementptr inbounds nuw { ptr, i64 }, ptr %4, i32 0, i32 1
  store i64 %2, ptr %8, align 8
  store ptr %0, ptr %5, align 8, !tbaa !21
  %9 = load ptr, ptr %5, align 8
  call void @_ZN5Yosys5RTLIL8IdString10checkpointEv()
  call void @_ZN5YosysL14log_suppressedEv()
  call void @llvm.lifetime.start.p0(i64 8, ptr %6) #3
  %10 = call noundef i64 @_ZN5Yosys16PerformanceTimer5queryEv()
  %11 = getelementptr inbounds nuw %"struct.Yosys::Pass::pre_post_exec_state_t", ptr %4, i32 0, i32 1
  %12 = load i64, ptr %11, align 8, !tbaa !63
  %13 = sub nsw i64 %10, %12
  store i64 %13, ptr %6, align 8, !tbaa !66
  %14 = load i64, ptr %6, align 8, !tbaa !66
  %15 = getelementptr inbounds nuw %"struct.Yosys::Pass", ptr %9, i32 0, i32 4
  %16 = load i64, ptr %15, align 8, !tbaa !36
  %17 = add nsw i64 %16, %14
  store i64 %17, ptr %15, align 8, !tbaa !36
  %18 = getelementptr inbounds nuw %"struct.Yosys::Pass::pre_post_exec_state_t", ptr %4, i32 0, i32 0
  %19 = load ptr, ptr %18, align 8, !tbaa !65
  store ptr %19, ptr @_ZN5Yosys12current_passE, align 8, !tbaa !21
  %20 = load ptr, ptr @_ZN5Yosys12current_passE, align 8, !tbaa !21
  %21 = icmp ne ptr %20, null
  br i1 %21, label %22, label %28

22:                                               ; preds = %3
  %23 = load i64, ptr %6, align 8, !tbaa !66
  %24 = load ptr, ptr @_ZN5Yosys12current_passE, align 8, !tbaa !21
  %25 = getelementptr inbounds nuw %"struct.Yosys::Pass", ptr %24, i32 0, i32 4
  %26 = load i64, ptr %25, align 8, !tbaa !36
  %27 = sub nsw i64 %26, %23
  store i64 %27, ptr %25, align 8, !tbaa !36
  br label %28

28:                                               ; preds = %22, %3
  call void @llvm.lifetime.end.p0(i64 8, ptr %6) #3
  ret void
}