; Function Attrs: mustprogress uwtable
define void @_ZN5Yosys4Pass12post_executeENS0_21pre_post_exec_state_tE(ptr noundef nonnull align 8 captures(none) dereferenceable(104) %0, ptr %1, i64 %2) local_unnamed_addr #4 align 2 {
  %4 = alloca %struct.rusage, align 8
  %5 = alloca [2 x i32], align 4
  %6 = load i32, ptr @_ZN5Yosys20log_debug_suppressedE, align 4, !tbaa !59
  %7 = icmp eq i32 %6, 0
  %8 = load i32, ptr @_ZN5Yosys14log_make_debugE, align 4
  %9 = icmp ne i32 %8, 0
  %or.cond.i = select i1 %7, i1 true, i1 %9
  br i1 %or.cond.i, label %_ZN5YosysL14log_suppressedEv.exit, label %10

10:                                               ; preds = %3
  tail call void (ptr, ...) @_ZN5Yosys3logEPKcz(ptr noundef nonnull @.str.55, i32 noundef %6)
  store i32 0, ptr @_ZN5Yosys20log_debug_suppressedE, align 4, !tbaa !59
  br label %_ZN5YosysL14log_suppressedEv.exit

_ZN5YosysL14log_suppressedEv.exit:                ; preds = %3, %10
  call void @llvm.lifetime.start.p0(i64 144, ptr nonnull %4) #39
  call void @llvm.lifetime.start.p0(i64 8, ptr nonnull %5) #39
  store i32 0, ptr %5, align 4, !tbaa !51
  %11 = getelementptr inbounds nuw i8, ptr %5, i64 4
  store i32 -1, ptr %11, align 4, !tbaa !51
  %12 = getelementptr inbounds nuw i8, ptr %4, i64 8
  %13 = getelementptr inbounds nuw i8, ptr %4, i64 16
  %14 = getelementptr inbounds nuw i8, ptr %4, i64 24
  br label %15

15:                                               ; preds = %20, %_ZN5YosysL14log_suppressedEv.exit
  %.015.i = phi i64 [ 0, %_ZN5YosysL14log_suppressedEv.exit ], [ %26, %20 ]
  %.09.idx14.i = phi i64 [ 0, %_ZN5YosysL14log_suppressedEv.exit ], [ %.09.add.i, %20 ]
  %.09.ptr.i = getelementptr inbounds nuw i8, ptr %5, i64 %.09.idx14.i
  %16 = load i32, ptr %.09.ptr.i, align 4, !tbaa !51
  %17 = call i32 @getrusage(i32 noundef %16, ptr noundef nonnull %4) #39
  %18 = icmp eq i32 %17, -1
  br i1 %18, label %19, label %20

19:                                               ; preds = %15
  call void (ptr, ...) @_ZN5Yosys13log_cmd_errorEPKcz(ptr noundef nonnull @.str.54) #40
  unreachable

20:                                               ; preds = %15
  %21 = load i64, ptr %4, align 8, !tbaa !53
  %22 = load i64, ptr %12, align 8, !tbaa !56
  %23 = load i64, ptr %13, align 8, !tbaa !57
  %24 = load i64, ptr %14, align 8, !tbaa !58
  %reass.add.i = add i64 %24, %22
  %reass.mul.i = mul i64 %reass.add.i, 1000
  %reass.add11.i = add i64 %23, %21
  %reass.mul12.i = mul i64 %reass.add11.i, 1000000000
  %25 = add i64 %reass.mul12.i, %.015.i
  %26 = add i64 %25, %reass.mul.i
  %.09.add.i = add nuw nsw i64 %.09.idx14.i, 4
  %.not.i = icmp eq i64 %.09.add.i, 8
  br i1 %.not.i, label %_ZN5Yosys16PerformanceTimer5queryEv.exit, label %15

_ZN5Yosys16PerformanceTimer5queryEv.exit:         ; preds = %20
  call void @llvm.lifetime.end.p0(i64 8, ptr nonnull %5) #39
  call void @llvm.lifetime.end.p0(i64 144, ptr nonnull %4) #39
  %27 = sub nsw i64 %26, %2
  %28 = getelementptr inbounds nuw i8, ptr %0, i64 80
  %29 = load i64, ptr %28, align 8, !tbaa !40
  %30 = add nsw i64 %29, %27
  store i64 %30, ptr %28, align 8, !tbaa !40
  store ptr %1, ptr @_ZN5Yosys12current_passE, align 8, !tbaa !37
  %.not = icmp eq ptr %1, null
  br i1 %.not, label %35, label %31

31:                                               ; preds = %_ZN5Yosys16PerformanceTimer5queryEv.exit
  %32 = getelementptr inbounds nuw i8, ptr %1, i64 80
  %33 = load i64, ptr %32, align 8, !tbaa !40
  %34 = sub nsw i64 %33, %27
  store i64 %34, ptr %32, align 8, !tbaa !40
  br label %35

35:                                               ; preds = %31, %_ZN5Yosys16PerformanceTimer5queryEv.exit
  ret void
}